; Function Attrs: nounwind uwtable
define void @cli_hashtab_free(ptr nocapture noundef %0) local_unnamed_addr #0 {
  %2 = getelementptr inbounds i8, ptr %0, i64 8
  %3 = load i64, ptr %2, align 8
  %.not18.i = icmp eq i64 %3, 0
  br i1 %.not18.i, label %._crit_edge.i, label %.lr.ph.i

.lr.ph.i:                                         ; preds = %1, %9
  %4 = phi i64 [ %10, %9 ], [ %3, %1 ]
  %.017.i = phi i64 [ %11, %9 ], [ 0, %1 ]
  %5 = load ptr, ptr %0, align 8
  %6 = getelementptr inbounds %struct.cli_element, ptr %5, i64 %.017.i
  %7 = load ptr, ptr %6, align 8
  %.not15.i = icmp eq ptr %7, null
  %.not16.i = icmp eq ptr %7, @DELETED_KEY
  %or.cond.i = or i1 %.not15.i, %.not16.i
  br i1 %or.cond.i, label %9, label %8

8:                                                ; preds = %.lr.ph.i
  tail call void @free(ptr noundef nonnull %7) #18
  %.pre.i = load i64, ptr %2, align 8
  br label %9

9:                                                ; preds = %8, %.lr.ph.i
  %10 = phi i64 [ %4, %.lr.ph.i ], [ %.pre.i, %8 ]
  %11 = add nuw i64 %.017.i, 1
  %12 = icmp ult i64 %11, %10
  br i1 %12, label %.lr.ph.i, label %._crit_edge.loopexit.i

._crit_edge.loopexit.i:                           ; preds = %9
  %13 = mul i64 %10, 24
  br label %._crit_edge.i

._crit_edge.i:                                    ; preds = %._crit_edge.loopexit.i, %1
  %.lcssa.i = phi i64 [ 0, %1 ], [ %13, %._crit_edge.loopexit.i ]
  %14 = load ptr, ptr %0, align 8
  %.not.i = icmp eq ptr %14, null
  br i1 %.not.i, label %cli_hashtab_clear.exit, label %15

15:                                               ; preds = %._crit_edge.i
  tail call void @llvm.memset.p0.i64(ptr nonnull align 8 %14, i8 0, i64 %.lcssa.i, i1 false)
  %.pre = load ptr, ptr %0, align 8
  br label %cli_hashtab_clear.exit

cli_hashtab_clear.exit:                           ; preds = %._crit_edge.i, %15
  %16 = phi ptr [ null, %._crit_edge.i ], [ %.pre, %15 ]
  %17 = getelementptr inbounds i8, ptr %0, i64 16
  store i64 0, ptr %17, align 8
  tail call void @free(ptr noundef %16) #18
  tail call void @llvm.memset.p0.i64(ptr noundef nonnull align 8 dereferenceable(16) %0, i8 0, i64 16, i1 false)
  ret void
}